; Function Attrs: nounwind uwtable
define internal ptr @_hashlib_hmac_get_name(ptr noundef readonly captures(none) %0, ptr readnone captures(none) %1) #0 {
  %3 = getelementptr inbounds nuw i8, ptr %0, i64 16
  %4 = load ptr, ptr %3, align 8, !tbaa !3
  %5 = tail call ptr @HMAC_CTX_get_md(ptr noundef %4) #9
  %6 = tail call i32 @EVP_MD_get_type(ptr noundef %5) #9
  %7 = icmp eq i32 %6, 4
  br i1 %7, label %py_digest_name.exit, label %.lr.ph

.lr.ph:                                           ; preds = %2, %10
  %.015.i9 = phi ptr [ %8, %10 ], [ @py_hashes, %2 ]
  %8 = getelementptr i8, ptr %.015.i9, i64 48
  %9 = load ptr, ptr %8, align 8, !tbaa !13
  %.not.i7 = icmp eq ptr %9, null
  br i1 %.not.i7, label %14, label %10, !llvm.loop !18

10:                                               ; preds = %.lr.ph
  %11 = getelementptr i8, ptr %.015.i9, i64 72
  %12 = load i32, ptr %11, align 8, !tbaa !20
  %13 = icmp eq i32 %12, %6
  br i1 %13, label %py_digest_name.exit, label %.lr.ph, !llvm.loop !18

14:                                               ; preds = %.lr.ph
  %15 = tail call ptr @OBJ_nid2ln(i32 noundef %6) #9
  %16 = icmp eq ptr %15, null
  br i1 %16, label %17, label %py_digest_name.exit

17:                                               ; preds = %14
  %18 = tail call ptr @OBJ_nid2sn(i32 noundef %6) #9
  br label %py_digest_name.exit

py_digest_name.exit:                              ; preds = %10, %2, %14, %17
  %.1.i = phi ptr [ %18, %17 ], [ %15, %14 ], [ @.str.3, %2 ], [ %9, %10 ]
  %19 = tail call ptr @PyUnicode_FromString(ptr noundef %.1.i) #9
  %20 = icmp eq ptr %19, null
  br i1 %20, label %Py_DECREF.exit, label %21

21:                                               ; preds = %py_digest_name.exit
  %22 = tail call ptr (ptr, ...) @PyUnicode_FromFormat(ptr noundef nonnull @.str.54, ptr noundef nonnull %19) #9
  %23 = load i32, ptr %19, align 8, !tbaa !21
  %.not.i = icmp sgt i32 %23, -1
  br i1 %.not.i, label %24, label %Py_DECREF.exit

24:                                               ; preds = %21
  %25 = add nsw i32 %23, -1
  store i32 %25, ptr %19, align 8, !tbaa !21
  %26 = icmp eq i32 %25, 0
  br i1 %26, label %27, label %Py_DECREF.exit

27:                                               ; preds = %24
  tail call void @_Py_Dealloc(ptr noundef nonnull %19) #9
  br label %Py_DECREF.exit

Py_DECREF.exit:                                   ; preds = %27, %24, %21, %py_digest_name.exit
  %.0 = phi ptr [ null, %py_digest_name.exit ], [ %22, %21 ], [ %22, %24 ], [ %22, %27 ]
  ret ptr %.0
}